target datalayout = "e-m:e-p270:32:32-p271:32:32-p272:64:64-i64:64-i128:128-f80:128-n8:16:32:64-S128"
target triple = "x86_64-pc-linux-gnu"

%struct.AVProbeData = type { ptr, ptr, i32, ptr }

; Function Attrs: nounwind uwtable
define internal i32 @vc1t_probe(ptr noundef %0) #0 {
  %2 = alloca i32, align 4
  %3 = alloca ptr, align 8
  %4 = alloca i32, align 4
  %5 = alloca i32, align 4
  store ptr %0, ptr %3, align 8, !tbaa !4
  call void @llvm.lifetime.start.p0(i64 4, ptr %4) #3
  %6 = load ptr, ptr %3, align 8, !tbaa !4
  %7 = getelementptr inbounds nuw %struct.AVProbeData, ptr %6, i32 0, i32 2
  %8 = load i32, ptr %7, align 8, !tbaa !9
  %9 = icmp slt i32 %8, 24
  br i1 %9, label %10, label %11

10:                                               ; preds = %1
  store i32 0, ptr %2, align 4
  store i32 1, ptr %5, align 4
  br label %46

11:                                               ; preds = %1
  %12 = load ptr, ptr %3, align 8, !tbaa !4
  %13 = getelementptr inbounds nuw %struct.AVProbeData, ptr %12, i32 0, i32 1
  %14 = load ptr, ptr %13, align 8, !tbaa !13
  %15 = getelementptr inbounds i8, ptr %14, i64 4
  %16 = load i32, ptr %15, align 1, !tbaa !14
  store i32 %16, ptr %4, align 4, !tbaa !15
  %17 = load ptr, ptr %3, align 8, !tbaa !4
  %18 = getelementptr inbounds nuw %struct.AVProbeData, ptr %17, i32 0, i32 1
  %19 = load ptr, ptr %18, align 8, !tbaa !13
  %20 = getelementptr inbounds i8, ptr %19, i64 3
  %21 = load i8, ptr %20, align 1, !tbaa !14
  %22 = zext i8 %21 to i32
  %23 = icmp ne i32 %22, 197
  br i1 %23, label %44, label %24

24:                                               ; preds = %11
  %25 = load i32, ptr %4, align 4, !tbaa !15
  %26 = icmp ult i32 %25, 4
  br i1 %26, label %44, label %27

27:                                               ; preds = %24
  %28 = load i32, ptr %4, align 4, !tbaa !15
  %29 = load ptr, ptr %3, align 8, !tbaa !4
  %30 = getelementptr inbounds nuw %struct.AVProbeData, ptr %29, i32 0, i32 2
  %31 = load i32, ptr %30, align 8, !tbaa !9
  %32 = sub nsw i32 %31, 20
  %33 = icmp ugt i32 %28, %32
  br i1 %33, label %44, label %34

34:                                               ; preds = %27
  %35 = load ptr, ptr %3, align 8, !tbaa !4
  %36 = getelementptr inbounds nuw %struct.AVProbeData, ptr %35, i32 0, i32 1
  %37 = load ptr, ptr %36, align 8, !tbaa !13
  %38 = load i32, ptr %4, align 4, !tbaa !15
  %39 = add i32 %38, 16
  %40 = zext i32 %39 to i64
  %41 = getelementptr inbounds nuw i8, ptr %37, i64 %40
  %42 = load i32, ptr %41, align 1, !tbaa !14
  %43 = icmp ne i32 %42, 12
  br i1 %43, label %44, label %45

44:                                               ; preds = %34, %27, %24, %11
  store i32 0, ptr %2, align 4
  store i32 1, ptr %5, align 4
  br label %46

45:                                               ; preds = %34
  store i32 50, ptr %2, align 4
  store i32 1, ptr %5, align 4
  br label %46

46:                                               ; preds = %45, %44, %10
  call void @llvm.lifetime.end.p0(i64 4, ptr %4) #3
  %47 = load i32, ptr %2, align 4
  ret i32 %47
}