; Function Attrs: mustprogress nofree norecurse nosync nounwind willreturn memory(read, inaccessiblemem: none) uwtable
define internal range(i32 0, 51) i32 @vc1t_probe(ptr noundef readonly captures(none) %0) #0 {
  %2 = getelementptr inbounds nuw i8, ptr %0, i64 16
  %3 = load i32, ptr %2, align 8, !tbaa !4
  %4 = icmp slt i32 %3, 24
  br i1 %4, label %21, label %5

5:                                                ; preds = %1
  %6 = getelementptr inbounds nuw i8, ptr %0, i64 8
  %7 = load ptr, ptr %6, align 8, !tbaa !11
  %8 = getelementptr inbounds nuw i8, ptr %7, i64 4
  %9 = load i32, ptr %8, align 1, !tbaa !12
  %10 = getelementptr inbounds nuw i8, ptr %7, i64 3
  %11 = load i8, ptr %10, align 1, !tbaa !12
  %12 = icmp ne i8 %11, -59
  %13 = icmp ult i32 %9, 4
  %or.cond = select i1 %12, i1 true, i1 %13
  %14 = add nsw i32 %3, -20
  %15 = icmp ugt i32 %9, %14
  %or.cond12 = select i1 %or.cond, i1 true, i1 %15
  br i1 %or.cond12, label %21, label %16

16:                                               ; preds = %5
  %17 = zext nneg i32 %9 to i64
  %18 = getelementptr inbounds nuw i8, ptr %7, i64 %17
  %19 = getelementptr inbounds nuw i8, ptr %18, i64 16
  %20 = load i32, ptr %19, align 1, !tbaa !12
  %.not = icmp eq i32 %20, 12
  %spec.select = select i1 %.not, i32 50, i32 0
  br label %21

21:                                               ; preds = %16, %5, %1
  %.0 = phi i32 [ 0, %1 ], [ 0, %5 ], [ %spec.select, %16 ]
  ret i32 %.0
}